target datalayout = "e-m:e-p270:32:32-p271:32:32-p272:64:64-i64:64-f80:128-n8:16:32:64-S128"
target triple = "x86_64-pc-linux-gnu"

@a = dso_local global [200 x [200 x i32]] zeroinitializer, align 16
@b = dso_local global [200 x [200 x i32]] zeroinitializer, align 16
@.str = private unnamed_addr constant [3 x i8] c"%d\00", align 1
@.str.1 = private unnamed_addr constant [3 x i8] c"%c\00", align 1

; Function Attrs: noinline nounwind uwtable
define dso_local i32 @main() #0 {
  %1 = alloca i32, align 4
  %2 = alloca i32, align 4
  %3 = alloca i32, align 4
  %4 = alloca i8, align 1
  %5 = alloca i32, align 4
  %6 = alloca i32, align 4
  %7 = alloca i32, align 4
  %8 = alloca i32, align 4
  %9 = alloca i32, align 4
  %10 = alloca i32, align 4
  %11 = alloca i32, align 4
  %12 = alloca i32, align 4
  store i32 0, i32* %1, align 4
  %13 = call i32 (i8*, ...) @__isoc99_scanf(i8* getelementptr inbounds ([3 x i8], [3 x i8]* @.str, i64 0, i64 0), i32* %2)
  %14 = call i32 @getchar()
  store i32 1, i32* %5, align 4
  br label %15

15:                                               ; preds = %53, %0
  %16 = load i32, i32* %5, align 4
  %17 = load i32, i32* %2, align 4
  %18 = icmp sle i32 %16, %17
  br i1 %18, label %19, label %56

19:                                               ; preds = %15
  store i32 1, i32* %6, align 4
  br label %20

20:                                               ; preds = %48, %19
  %21 = load i32, i32* %6, align 4
  %22 = load i32, i32* %2, align 4
  %23 = icmp sle i32 %21, %22
  br i1 %23, label %24, label %51

24:                                               ; preds = %20
  %25 = load i32, i32* %5, align 4
  %26 = sext i32 %25 to i64
  %27 = getelementptr inbounds [200 x [200 x i32]], [200 x [200 x i32]]* @a, i64 0, i64 %26
  %28 = load i32, i32* %6, align 4
  %29 = sext i32 %28 to i64
  %30 = getelementptr inbounds [200 x i32], [200 x i32]* %27, i64 0, i64 %29
  %31 = call i32 (i8*, ...) @__isoc99_scanf(i8* getelementptr inbounds ([3 x i8], [3 x i8]* @.str.1, i64 0, i64 0), i32* %30)
  %32 = load i32, i32* %5, align 4
  %33 = sext i32 %32 to i64
  %34 = getelementptr inbounds [200 x [200 x i32]], [200 x [200 x i32]]* @a, i64 0, i64 %33
  %35 = load i32, i32* %6, align 4
  %36 = sext i32 %35 to i64
  %37 = getelementptr inbounds [200 x i32], [200 x i32]* %34, i64 0, i64 %36
  %38 = load i32, i32* %37, align 4
  %39 = icmp eq i32 %38, 64
  br i1 %39, label %40, label %47

40:                                               ; preds = %24
  %41 = load i32, i32* %5, align 4
  %42 = sext i32 %41 to i64
  %43 = getelementptr inbounds [200 x [200 x i32]], [200 x [200 x i32]]* @b, i64 0, i64 %42
  %44 = load i32, i32* %6, align 4
  %45 = sext i32 %44 to i64
  %46 = getelementptr inbounds [200 x i32], [200 x i32]* %43, i64 0, i64 %45
  store i32 1, i32* %46, align 4
  br label %47

47:                                               ; preds = %40, %24
  br label %48

48:                                               ; preds = %47
  %49 = load i32, i32* %6, align 4
  %50 = add nsw i32 %49, 1
  store i32 %50, i32* %6, align 4
  br label %20

51:                                               ; preds = %20
  %52 = call i32 @getchar()
  br label %53

53:                                               ; preds = %51
  %54 = load i32, i32* %5, align 4
  %55 = add nsw i32 %54, 1
  store i32 %55, i32* %5, align 4
  br label %15

56:                                               ; preds = %15
  %57 = call i32 (i8*, ...) @__isoc99_scanf(i8* getelementptr inbounds ([3 x i8], [3 x i8]* @.str, i64 0, i64 0), i32* %3)
  store i32 1, i32* %7, align 4
  br label %58

58:                                               ; preds = %209, %56
  %59 = load i32, i32* %7, align 4
  %60 = load i32, i32* %3, align 4
  %61 = icmp slt i32 %59, %60
  br i1 %61, label %62, label %212

62:                                               ; preds = %58
  store i32 1, i32* %8, align 4
  br label %63

63:                                               ; preds = %205, %62
  %64 = load i32, i32* %8, align 4
  %65 = load i32, i32* %2, align 4
  %66 = icmp sle i32 %64, %65
  br i1 %66, label %67, label %208

67:                                               ; preds = %63
  store i32 1, i32* %9, align 4
  br label %68

68:                                               ; preds = %201, %67
  %69 = load i32, i32* %9, align 4
  %70 = load i32, i32* %2, align 4
  %71 = icmp sle i32 %69, %70
  br i1 %71, label %72, label %204

72:                                               ; preds = %68
  %73 = load i32, i32* %8, align 4
  %74 = sext i32 %73 to i64
  %75 = getelementptr inbounds [200 x [200 x i32]], [200 x [200 x i32]]* @a, i64 0, i64 %74
  %76 = load i32, i32* %9, align 4
  %77 = sext i32 %76 to i64
  %78 = getelementptr inbounds [200 x i32], [200 x i32]* %75, i64 0, i64 %77
  %79 = load i32, i32* %78, align 4
  %80 = icmp eq i32 %79, 64
  br i1 %80, label %81, label %200

81:                                               ; preds = %72
  %82 = load i32, i32* %8, align 4
  %83 = sext i32 %82 to i64
  %84 = getelementptr inbounds [200 x [200 x i32]], [200 x [200 x i32]]* @b, i64 0, i64 %83
  %85 = load i32, i32* %9, align 4
  %86 = sext i32 %85 to i64
  %87 = getelementptr inbounds [200 x i32], [200 x i32]* %84, i64 0, i64 %86
  %88 = load i32, i32* %87, align 4
  %89 = load i32, i32* %7, align 4
  %90 = icmp eq i32 %88, %89
  br i1 %90, label %91, label %200

91:                                               ; preds = %81
  %92 = load i32, i32* %8, align 4
  %93 = add nsw i32 %92, 1
  %94 = sext i32 %93 to i64
  %95 = getelementptr inbounds [200 x [200 x i32]], [200 x [200 x i32]]* @a, i64 0, i64 %94
  %96 = load i32, i32* %9, align 4
  %97 = sext i32 %96 to i64
  %98 = getelementptr inbounds [200 x i32], [200 x i32]* %95, i64 0, i64 %97
  %99 = load i32, i32* %98, align 4
  %100 = icmp eq i32 %99, 46
  br i1 %100, label %101, label %118

101:                                              ; preds = %91
  %102 = load i32, i32* %8, align 4
  %103 = add nsw i32 %102, 1
  %104 = sext i32 %103 to i64
  %105 = getelementptr inbounds [200 x [200 x i32]], [200 x [200 x i32]]* @a, i64 0, i64 %104
  %106 = load i32, i32* %9, align 4
  %107 = sext i32 %106 to i64
  %108 = getelementptr inbounds [200 x i32], [200 x i32]* %105, i64 0, i64 %107
  store i32 64, i32* %108, align 4
  %109 = load i32, i32* %7, align 4
  %110 = add nsw i32 %109, 1
  %111 = load i32, i32* %8, align 4
  %112 = add nsw i32 %111, 1
  %113 = sext i32 %112 to i64
  %114 = getelementptr inbounds [200 x [200 x i32]], [200 x [200 x i32]]* @b, i64 0, i64 %113
  %115 = load i32, i32* %9, align 4
  %116 = sext i32 %115 to i64
  %117 = getelementptr inbounds [200 x i32], [200 x i32]* %114, i64 0, i64 %116
  store i32 %110, i32* %117, align 4
  br label %118

118:                                              ; preds = %101, %91
  %119 = load i32, i32* %8, align 4
  %120 = sub nsw i32 %119, 1
  %121 = sext i32 %120 to i64
  %122 = getelementptr inbounds [200 x [200 x i32]], [200 x [200 x i32]]* @a, i64 0, i64 %121
  %123 = load i32, i32* %9, align 4
  %124 = sext i32 %123 to i64
  %125 = getelementptr inbounds [200 x i32], [200 x i32]* %122, i64 0, i64 %124
  %126 = load i32, i32* %125, align 4
  %127 = icmp eq i32 %126, 46
  br i1 %127, label %128, label %145

128:                                              ; preds = %118
  %129 = load i32, i32* %8, align 4
  %130 = sub nsw i32 %129, 1
  %131 = sext i32 %130 to i64
  %132 = getelementptr inbounds [200 x [200 x i32]], [200 x [200 x i32]]* @a, i64 0, i64 %131
  %133 = load i32, i32* %9, align 4
  %134 = sext i32 %133 to i64
  %135 = getelementptr inbounds [200 x i32], [200 x i32]* %132, i64 0, i64 %134
  store i32 64, i32* %135, align 4
  %136 = load i32, i32* %7, align 4
  %137 = add nsw i32 %136, 1
  %138 = load i32, i32* %8, align 4
  %139 = sub nsw i32 %138, 1
  %140 = sext i32 %139 to i64
  %141 = getelementptr inbounds [200 x [200 x i32]], [200 x [200 x i32]]* @b, i64 0, i64 %140
  %142 = load i32, i32* %9, align 4
  %143 = sext i32 %142 to i64
  %144 = getelementptr inbounds [200 x i32], [200 x i32]* %141, i64 0, i64 %143
  store i32 %137, i32* %144, align 4
  br label %145

145:                                              ; preds = %128, %118
  %146 = load i32, i32* %8, align 4
  %147 = sext i32 %146 to i64
  %148 = getelementptr inbounds [200 x [200 x i32]], [200 x [200 x i32]]* @a, i64 0, i64 %147
  %149 = load i32, i32* %9, align 4
  %150 = add nsw i32 %149, 1
  %151 = sext i32 %150 to i64
  %152 = getelementptr inbounds [200 x i32], [200 x i32]* %148, i64 0, i64 %151
  %153 = load i32, i32* %152, align 4
  %154 = icmp eq i32 %153, 46
  br i1 %154, label %155, label %172

155:                                              ; preds = %145
  %156 = load i32, i32* %8, align 4
  %157 = sext i32 %156 to i64
  %158 = getelementptr inbounds [200 x [200 x i32]], [200 x [200 x i32]]* @a, i64 0, i64 %157
  %159 = load i32, i32* %9, align 4
  %160 = add nsw i32 %159, 1
  %161 = sext i32 %160 to i64
  %162 = getelementptr inbounds [200 x i32], [200 x i32]* %158, i64 0, i64 %161
  store i32 64, i32* %162, align 4
  %163 = load i32, i32* %7, align 4
  %164 = add nsw i32 %163, 1
  %165 = load i32, i32* %8, align 4
  %166 = sext i32 %165 to i64
  %167 = getelementptr inbounds [200 x [200 x i32]], [200 x [200 x i32]]* @b, i64 0, i64 %166
  %168 = load i32, i32* %9, align 4
  %169 = add nsw i32 %168, 1
  %170 = sext i32 %169 to i64
  %171 = getelementptr inbounds [200 x i32], [200 x i32]* %167, i64 0, i64 %170
  store i32 %164, i32* %171, align 4
  br label %172

172:                                              ; preds = %155, %145
  %173 = load i32, i32* %8, align 4
  %174 = sext i32 %173 to i64
  %175 = getelementptr inbounds [200 x [200 x i32]], [200 x [200 x i32]]* @a, i64 0, i64 %174
  %176 = load i32, i32* %9, align 4
  %177 = sub nsw i32 %176, 1
  %178 = sext i32 %177 to i64
  %179 = getelementptr inbounds [200 x i32], [200 x i32]* %175, i64 0, i64 %178
  %180 = load i32, i32* %179, align 4
  %181 = icmp eq i32 %180, 46
  br i1 %181, label %182, label %199

182:                                              ; preds = %172
  %183 = load i32, i32* %8, align 4
  %184 = sext i32 %183 to i64
  %185 = getelementptr inbounds [200 x [200 x i32]], [200 x [200 x i32]]* @a, i64 0, i64 %184
  %186 = load i32, i32* %9, align 4
  %187 = sub nsw i32 %186, 1
  %188 = sext i32 %187 to i64
  %189 = getelementptr inbounds [200 x i32], [200 x i32]* %185, i64 0, i64 %188
  store i32 64, i32* %189, align 4
  %190 = load i32, i32* %7, align 4
  %191 = add nsw i32 %190, 1
  %192 = load i32, i32* %8, align 4
  %193 = sext i32 %192 to i64
  %194 = getelementptr inbounds [200 x [200 x i32]], [200 x [200 x i32]]* @b, i64 0, i64 %193
  %195 = load i32, i32* %9, align 4
  %196 = sub nsw i32 %195, 1
  %197 = sext i32 %196 to i64
  %198 = getelementptr inbounds [200 x i32], [200 x i32]* %194, i64 0, i64 %197
  store i32 %191, i32* %198, align 4
  br label %199

199:                                              ; preds = %182, %172
  br label %200

200:                                              ; preds = %199, %81, %72
  br label %201

201:                                              ; preds = %200
  %202 = load i32, i32* %9, align 4
  %203 = add nsw i32 %202, 1
  store i32 %203, i32* %9, align 4
  br label %68

204:                                              ; preds = %68
  br label %205

205:                                              ; preds = %204
  %206 = load i32, i32* %8, align 4
  %207 = add nsw i32 %206, 1
  store i32 %207, i32* %8, align 4
  br label %63

208:                                              ; preds = %63
  br label %209

209:                                              ; preds = %208
  %210 = load i32, i32* %7, align 4
  %211 = add nsw i32 %210, 1
  store i32 %211, i32* %7, align 4
  br label %58

212:                                              ; preds = %58
  store i32 0, i32* %10, align 4
  store i32 1, i32* %11, align 4
  br label %213

213:                                              ; preds = %239, %212
  %214 = load i32, i32* %11, align 4
  %215 = load i32, i32* %2, align 4
  %216 = icmp sle i32 %214, %215
  br i1 %216, label %217, label %242

217:                                              ; preds = %213
  store i32 1, i32* %12, align 4
  br label %218

218:                                              ; preds = %235, %217
  %219 = load i32, i32* %12, align 4
  %220 = load i32, i32* %2, align 4
  %221 = icmp sle i32 %219, %220
  br i1 %221, label %222, label %238

222:                                              ; preds = %218
  %223 = load i32, i32* %11, align 4
  %224 = sext i32 %223 to i64
  %225 = getelementptr inbounds [200 x [200 x i32]], [200 x [200 x i32]]* @a, i64 0, i64 %224
  %226 = load i32, i32* %12, align 4
  %227 = sext i32 %226 to i64
  %228 = getelementptr inbounds [200 x i32], [200 x i32]* %225, i64 0, i64 %227
  %229 = load i32, i32* %228, align 4
  %230 = icmp eq i32 %229, 64
  br i1 %230, label %231, label %234

231:                                              ; preds = %222
  %232 = load i32, i32* %10, align 4
  %233 = add nsw i32 %232, 1
  store i32 %233, i32* %10, align 4
  br label %234

234:                                              ; preds = %231, %222
  br label %235

235:                                              ; preds = %234
  %236 = load i32, i32* %12, align 4
  %237 = add nsw i32 %236, 1
  store i32 %237, i32* %12, align 4
  br label %218

238:                                              ; preds = %218
  br label %239

239:                                              ; preds = %238
  %240 = load i32, i32* %11, align 4
  %241 = add nsw i32 %240, 1
  store i32 %241, i32* %11, align 4
  br label %213

242:                                              ; preds = %213
  %243 = load i32, i32* %10, align 4
  %244 = call i32 (i8*, ...) @printf(i8* getelementptr inbounds ([3 x i8], [3 x i8]* @.str, i64 0, i64 0), i32 %243)
  %245 = load i32, i32* %1, align 4
  ret i32 %245
}